; Function Attrs: mustprogress uwtable
define dso_local void @_ZN4Luau8FreeTypeC2EPNS_5ScopeE(ptr noundef nonnull writeonly align 8 captures(none) dereferenceable(48) initializes((0, 12), (16, 25), (32, 48)) %0, ptr noundef %1) unnamed_addr #2 align 2 {
  %3 = tail call noundef i32 @_ZN4Luau9Unifiable10freshIndexEv()
  store i32 %3, ptr %0, align 8, !tbaa !160
  %4 = getelementptr inbounds nuw i8, ptr %0, i64 4
  store i32 0, ptr %4, align 4, !tbaa !168
  %5 = getelementptr inbounds nuw i8, ptr %0, i64 8
  store i32 0, ptr %5, align 8, !tbaa !169
  %6 = getelementptr inbounds nuw i8, ptr %0, i64 16
  store ptr %1, ptr %6, align 8, !tbaa !164
  %7 = getelementptr inbounds nuw i8, ptr %0, i64 24
  store i8 0, ptr %7, align 8, !tbaa !165
  %8 = getelementptr inbounds nuw i8, ptr %0, i64 32
  tail call void @llvm.memset.p0.i64(ptr noundef nonnull align 8 dereferenceable(16) %8, i8 0, i64 16, i1 false)
  ret void
}